; Function Attrs: nounwind uwtable
define zeroext range(i8 0, 2) i8 @l_Lake_Git_isFullObjectName(ptr noundef %0) local_unnamed_addr #0 {
lean_dec.exit14:
  %1 = getelementptr i8, ptr %0, i64 24
  %.val17 = load i64, ptr %1, align 8, !tbaa !4
  %.mask = and i64 %.val17, 9223372036854775807
  %.not = icmp eq i64 %.mask, 40
  br i1 %.not, label %lean_dec.exit, label %7

lean_dec.exit:                                    ; preds = %lean_dec.exit14
  %2 = getelementptr i8, ptr %0, i64 8
  %.val = load i64, ptr %2, align 8, !tbaa !4
  %3 = shl i64 %.val, 1
  %4 = add i64 %3, -1
  %5 = inttoptr i64 %4 to ptr
  %6 = tail call zeroext i8 @l_String_anyAux___at_Lake_Git_isFullObjectName___spec__1(ptr noundef nonnull %0, ptr noundef nonnull %5, ptr noundef nonnull inttoptr (i64 1 to ptr))
  %. = xor i8 %6, 1
  br label %7

7:                                                ; preds = %lean_dec.exit14, %lean_dec.exit
  %.0 = phi i8 [ %., %lean_dec.exit ], [ 0, %lean_dec.exit14 ]
  ret i8 %.0
}